target datalayout = "e-m:e-p270:32:32-p271:32:32-p272:64:64-i64:64-i128:128-f80:128-n8:16:32:64-S128"
target triple = "x86_64-pc-linux-gnu"

%struct.Cut_Cell_t_ = type { ptr, ptr, ptr, i32, [4 x i8], i32, [12 x i8], [18 x i16], [16 x i32] }

@Cut_CellSuppMin.uTemp = internal global [16 x i32] zeroinitializer, align 16

; Function Attrs: inlinehint nounwind uwtable
define internal i32 @Extra_TruthWordNum(i32 noundef %0) #5 {
  %2 = alloca i32, align 4
  store i32 %0, ptr %2, align 4, !tbaa !12
  %3 = load i32, ptr %2, align 4, !tbaa !12
  %4 = icmp sle i32 %3, 5
  br i1 %4, label %5, label %6

5:                                                ; preds = %1
  br label %10

6:                                                ; preds = %1
  %7 = load i32, ptr %2, align 4, !tbaa !12
  %8 = sub nsw i32 %7, 5
  %9 = shl i32 1, %8
  br label %10

10:                                               ; preds = %6, %5
  %11 = phi i32 [ 1, %5 ], [ %9, %6 ]
  ret i32 %11
}

; Function Attrs: inlinehint nounwind uwtable
define internal void @Extra_TruthCopy(ptr noundef %0, ptr noundef %1, i32 noundef %2) #5 {
  %4 = alloca ptr, align 8
  %5 = alloca ptr, align 8
  %6 = alloca i32, align 4
  %7 = alloca i32, align 4
  store ptr %0, ptr %4, align 8, !tbaa !29
  store ptr %1, ptr %5, align 8, !tbaa !29
  store i32 %2, ptr %6, align 4, !tbaa !12
  call void @llvm.lifetime.start.p0(i64 4, ptr %7) #9
  %8 = load i32, ptr %6, align 4, !tbaa !12
  %9 = call i32 @Extra_TruthWordNum(i32 noundef %8)
  %10 = sub nsw i32 %9, 1
  store i32 %10, ptr %7, align 4, !tbaa !12
  br label %11

11:                                               ; preds = %24, %3
  %12 = load i32, ptr %7, align 4, !tbaa !12
  %13 = icmp sge i32 %12, 0
  br i1 %13, label %14, label %27

14:                                               ; preds = %11
  %15 = load ptr, ptr %5, align 8, !tbaa !29
  %16 = load i32, ptr %7, align 4, !tbaa !12
  %17 = sext i32 %16 to i64
  %18 = getelementptr inbounds i32, ptr %15, i64 %17
  %19 = load i32, ptr %18, align 4, !tbaa !12
  %20 = load ptr, ptr %4, align 8, !tbaa !29
  %21 = load i32, ptr %7, align 4, !tbaa !12
  %22 = sext i32 %21 to i64
  %23 = getelementptr inbounds i32, ptr %20, i64 %22
  store i32 %19, ptr %23, align 4, !tbaa !12
  br label %24

24:                                               ; preds = %14
  %25 = load i32, ptr %7, align 4, !tbaa !12
  %26 = add nsw i32 %25, -1
  store i32 %26, ptr %7, align 4, !tbaa !12
  br label %11, !llvm.loop !92

27:                                               ; preds = %11
  call void @llvm.lifetime.end.p0(i64 4, ptr %7) #9
  ret void
}

; Function Attrs: nounwind uwtable
define internal void @Cut_CellSuppMin(ptr noundef %0) #0 {
  %2 = alloca ptr, align 8
  %3 = alloca ptr, align 8
  %4 = alloca ptr, align 8
  %5 = alloca ptr, align 8
  %6 = alloca i32, align 4
  %7 = alloca i32, align 4
  %8 = alloca i32, align 4
  %9 = alloca i32, align 4
  store ptr %0, ptr %2, align 8, !tbaa !22
  call void @llvm.lifetime.start.p0(i64 8, ptr %3) #9
  call void @llvm.lifetime.start.p0(i64 8, ptr %4) #9
  call void @llvm.lifetime.start.p0(i64 8, ptr %5) #9
  call void @llvm.lifetime.start.p0(i64 4, ptr %6) #9
  call void @llvm.lifetime.start.p0(i64 4, ptr %7) #9
  call void @llvm.lifetime.start.p0(i64 4, ptr %8) #9
  call void @llvm.lifetime.start.p0(i64 4, ptr %9) #9
  %10 = load ptr, ptr %2, align 8, !tbaa !22
  %11 = getelementptr inbounds nuw %struct.Cut_Cell_t_, ptr %10, i32 0, i32 5
  %12 = load i32, ptr %11, align 8
  %13 = and i32 %12, 15
  %14 = sub nsw i32 %13, 1
  store i32 %14, ptr %7, align 4, !tbaa !12
  br label %15

15:                                               ; preds = %107, %1
  %16 = load i32, ptr %7, align 4, !tbaa !12
  %17 = icmp sge i32 %16, 0
  br i1 %17, label %18, label %110

18:                                               ; preds = %15
  %19 = load ptr, ptr %2, align 8, !tbaa !22
  %20 = getelementptr inbounds nuw %struct.Cut_Cell_t_, ptr %19, i32 0, i32 8
  %21 = getelementptr inbounds [16 x i32], ptr %20, i64 0, i64 0
  %22 = load ptr, ptr %2, align 8, !tbaa !22
  %23 = getelementptr inbounds nuw %struct.Cut_Cell_t_, ptr %22, i32 0, i32 5
  %24 = load i32, ptr %23, align 8
  %25 = and i32 %24, 15
  %26 = load i32, ptr %7, align 4, !tbaa !12
  %27 = call i32 @Extra_TruthVarInSupport(ptr noundef %21, i32 noundef %25, i32 noundef %26)
  %28 = icmp ne i32 %27, 0
  br i1 %28, label %106, label %29

29:                                               ; preds = %18
  store i32 0, ptr %8, align 4, !tbaa !12
  %30 = load ptr, ptr %2, align 8, !tbaa !22
  %31 = getelementptr inbounds nuw %struct.Cut_Cell_t_, ptr %30, i32 0, i32 8
  %32 = getelementptr inbounds [16 x i32], ptr %31, i64 0, i64 0
  store ptr %32, ptr %3, align 8, !tbaa !29
  store ptr @Cut_CellSuppMin.uTemp, ptr %4, align 8, !tbaa !29
  %33 = load i32, ptr %7, align 4, !tbaa !12
  store i32 %33, ptr %6, align 4, !tbaa !12
  br label %34

34:                                               ; preds = %82, %29
  %35 = load i32, ptr %6, align 4, !tbaa !12
  %36 = load ptr, ptr %2, align 8, !tbaa !22
  %37 = getelementptr inbounds nuw %struct.Cut_Cell_t_, ptr %36, i32 0, i32 5
  %38 = load i32, ptr %37, align 8
  %39 = and i32 %38, 15
  %40 = sub nsw i32 %39, 1
  %41 = icmp slt i32 %35, %40
  br i1 %41, label %42, label %85

42:                                               ; preds = %34
  %43 = load ptr, ptr %4, align 8, !tbaa !29
  %44 = load ptr, ptr %3, align 8, !tbaa !29
  %45 = load ptr, ptr %2, align 8, !tbaa !22
  %46 = getelementptr inbounds nuw %struct.Cut_Cell_t_, ptr %45, i32 0, i32 5
  %47 = load i32, ptr %46, align 8
  %48 = and i32 %47, 15
  %49 = load i32, ptr %6, align 4, !tbaa !12
  call void @Extra_TruthSwapAdjacentVars(ptr noundef %43, ptr noundef %44, i32 noundef %48, i32 noundef %49)
  %50 = load ptr, ptr %3, align 8, !tbaa !29
  store ptr %50, ptr %5, align 8, !tbaa !29
  %51 = load ptr, ptr %4, align 8, !tbaa !29
  store ptr %51, ptr %3, align 8, !tbaa !29
  %52 = load ptr, ptr %5, align 8, !tbaa !29
  store ptr %52, ptr %4, align 8, !tbaa !29
  %53 = load ptr, ptr %2, align 8, !tbaa !22
  %54 = getelementptr inbounds nuw %struct.Cut_Cell_t_, ptr %53, i32 0, i32 6
  %55 = load i32, ptr %6, align 4, !tbaa !12
  %56 = sext i32 %55 to i64
  %57 = getelementptr inbounds [12 x i8], ptr %54, i64 0, i64 %56
  %58 = load i8, ptr %57, align 1, !tbaa !14
  %59 = sext i8 %58 to i32
  store i32 %59, ptr %9, align 4, !tbaa !12
  %60 = load ptr, ptr %2, align 8, !tbaa !22
  %61 = getelementptr inbounds nuw %struct.Cut_Cell_t_, ptr %60, i32 0, i32 6
  %62 = load i32, ptr %6, align 4, !tbaa !12
  %63 = add nsw i32 %62, 1
  %64 = sext i32 %63 to i64
  %65 = getelementptr inbounds [12 x i8], ptr %61, i64 0, i64 %64
  %66 = load i8, ptr %65, align 1, !tbaa !14
  %67 = load ptr, ptr %2, align 8, !tbaa !22
  %68 = getelementptr inbounds nuw %struct.Cut_Cell_t_, ptr %67, i32 0, i32 6
  %69 = load i32, ptr %6, align 4, !tbaa !12
  %70 = sext i32 %69 to i64
  %71 = getelementptr inbounds [12 x i8], ptr %68, i64 0, i64 %70
  store i8 %66, ptr %71, align 1, !tbaa !14
  %72 = load i32, ptr %9, align 4, !tbaa !12
  %73 = trunc i32 %72 to i8
  %74 = load ptr, ptr %2, align 8, !tbaa !22
  %75 = getelementptr inbounds nuw %struct.Cut_Cell_t_, ptr %74, i32 0, i32 6
  %76 = load i32, ptr %6, align 4, !tbaa !12
  %77 = add nsw i32 %76, 1
  %78 = sext i32 %77 to i64
  %79 = getelementptr inbounds [12 x i8], ptr %75, i64 0, i64 %78
  store i8 %73, ptr %79, align 1, !tbaa !14
  %80 = load i32, ptr %8, align 4, !tbaa !12
  %81 = add nsw i32 %80, 1
  store i32 %81, ptr %8, align 4, !tbaa !12
  br label %82

82:                                               ; preds = %42
  %83 = load i32, ptr %6, align 4, !tbaa !12
  %84 = add nsw i32 %83, 1
  store i32 %84, ptr %6, align 4, !tbaa !12
  br label %34, !llvm.loop !31

85:                                               ; preds = %34
  %86 = load i32, ptr %8, align 4, !tbaa !12
  %87 = and i32 %86, 1
  %88 = icmp ne i32 %87, 0
  br i1 %88, label %89, label %96

89:                                               ; preds = %85
  %90 = load ptr, ptr %4, align 8, !tbaa !29
  %91 = load ptr, ptr %3, align 8, !tbaa !29
  %92 = load ptr, ptr %2, align 8, !tbaa !22
  %93 = getelementptr inbounds nuw %struct.Cut_Cell_t_, ptr %92, i32 0, i32 5
  %94 = load i32, ptr %93, align 8
  %95 = and i32 %94, 15
  call void @Extra_TruthCopy(ptr noundef %90, ptr noundef %91, i32 noundef %95)
  br label %96

96:                                               ; preds = %89, %85
  %97 = load ptr, ptr %2, align 8, !tbaa !22
  %98 = getelementptr inbounds nuw %struct.Cut_Cell_t_, ptr %97, i32 0, i32 5
  %99 = load i32, ptr %98, align 8
  %100 = and i32 %99, 15
  %101 = add i32 %100, -1
  %102 = load i32, ptr %98, align 8
  %103 = and i32 %101, 15
  %104 = and i32 %102, -16
  %105 = or i32 %104, %103
  store i32 %105, ptr %98, align 8
  br label %106

106:                                              ; preds = %96, %18
  br label %107

107:                                              ; preds = %106
  %108 = load i32, ptr %7, align 4, !tbaa !12
  %109 = add nsw i32 %108, -1
  store i32 %109, ptr %7, align 4, !tbaa !12
  br label %15, !llvm.loop !32

110:                                              ; preds = %15
  call void @llvm.lifetime.end.p0(i64 4, ptr %9) #9
  call void @llvm.lifetime.end.p0(i64 4, ptr %8) #9
  call void @llvm.lifetime.end.p0(i64 4, ptr %7) #9
  call void @llvm.lifetime.end.p0(i64 4, ptr %6) #9
  call void @llvm.lifetime.end.p0(i64 8, ptr %5) #9
  call void @llvm.lifetime.end.p0(i64 8, ptr %4) #9
  call void @llvm.lifetime.end.p0(i64 8, ptr %3) #9
  ret void
}