; Function Attrs: nounwind uwtable
define internal fastcc void @Cut_CellSuppMin(ptr noundef %0) unnamed_addr #0 {
  %2 = getelementptr inbounds nuw i8, ptr %0, i64 32
  %3 = load i32, ptr %2, align 8
  %4 = and i32 %3, 15
  %.not49 = icmp eq i32 %4, 0
  br i1 %.not49, label %._crit_edge48, label %.lr.ph47

.lr.ph47:                                         ; preds = %1
  %5 = getelementptr inbounds nuw i8, ptr %0, i64 84
  %6 = getelementptr inbounds nuw i8, ptr %0, i64 36
  %7 = add nsw i32 %4, -1
  %8 = zext nneg i32 %7 to i64
  br label %9

9:                                                ; preds = %.lr.ph47, %42
  %indvars.iv = phi i64 [ %8, %.lr.ph47 ], [ %indvars.iv.next, %42 ]
  %.03345.in = phi i32 [ %4, %.lr.ph47 ], [ %.03345, %42 ]
  %.03345 = add nsw i32 %.03345.in, -1
  %10 = load i32, ptr %2, align 8
  %11 = and i32 %10, 15
  %12 = tail call i32 @Extra_TruthVarInSupport(ptr noundef nonnull %5, i32 noundef %11, i32 noundef %.03345) #16
  %.not = icmp eq i32 %12, 0
  br i1 %.not, label %.preheader, label %42

.preheader:                                       ; preds = %9
  %13 = load i32, ptr %2, align 8
  %14 = and i32 %13, 15
  %15 = icmp samesign ult i32 %.03345.in, %14
  br i1 %15, label %.lr.ph, label %Extra_TruthCopy.exit

.lr.ph:                                           ; preds = %.preheader, %.lr.ph
  %indvars.iv52 = phi i64 [ %indvars.iv.next53, %.lr.ph ], [ %indvars.iv, %.preheader ]
  %16 = phi i32 [ %24, %.lr.ph ], [ %14, %.preheader ]
  %.040 = phi ptr [ %.03537, %.lr.ph ], [ %5, %.preheader ]
  %.03239 = phi i32 [ %22, %.lr.ph ], [ 0, %.preheader ]
  %.03537 = phi ptr [ %.040, %.lr.ph ], [ @Cut_CellSuppMin.uTemp, %.preheader ]
  %17 = trunc nuw i64 %indvars.iv52 to i32
  tail call void @Extra_TruthSwapAdjacentVars(ptr noundef %.03537, ptr noundef %.040, i32 noundef %16, i32 noundef %17) #16
  %18 = getelementptr inbounds nuw [12 x i8], ptr %6, i64 0, i64 %indvars.iv52
  %19 = load i8, ptr %18, align 1, !tbaa !19
  %indvars.iv.next53 = add nuw nsw i64 %indvars.iv52, 1
  %20 = getelementptr inbounds nuw [12 x i8], ptr %6, i64 0, i64 %indvars.iv.next53
  %21 = load i8, ptr %20, align 1, !tbaa !19
  store i8 %21, ptr %18, align 1, !tbaa !19
  store i8 %19, ptr %20, align 1, !tbaa !19
  %22 = add nuw nsw i32 %.03239, 1
  %23 = load i32, ptr %2, align 8
  %24 = and i32 %23, 15
  %25 = add nsw i32 %24, -1
  %26 = trunc nuw i64 %indvars.iv.next53 to i32
  %27 = icmp sgt i32 %25, %26
  br i1 %27, label %.lr.ph, label %._crit_edge, !llvm.loop !26

._crit_edge:                                      ; preds = %.lr.ph
  %28 = and i32 %.03239, 1
  %.not63 = icmp eq i32 %28, 0
  br i1 %.not63, label %select.unfold.preheader.i, label %Extra_TruthCopy.exit

select.unfold.preheader.i:                        ; preds = %._crit_edge
  %29 = icmp samesign ult i32 %24, 6
  %30 = add nsw i32 %24, -5
  %31 = shl nuw nsw i32 1, %30
  %spec.select.i = select i1 %29, i32 1, i32 %31
  %32 = zext nneg i32 %spec.select.i to i64
  br label %select.unfold.i

select.unfold.i:                                  ; preds = %select.unfold.i, %select.unfold.preheader.i
  %indvars.iv.i = phi i64 [ %32, %select.unfold.preheader.i ], [ %indvars.iv.next.i, %select.unfold.i ]
  %indvars.iv.next.i = add nsw i64 %indvars.iv.i, -1
  %33 = getelementptr inbounds nuw i32, ptr %.03537, i64 %indvars.iv.next.i
  %34 = load i32, ptr %33, align 4, !tbaa !13
  %35 = getelementptr inbounds nuw i32, ptr %.040, i64 %indvars.iv.next.i
  store i32 %34, ptr %35, align 4, !tbaa !13
  %36 = icmp samesign ugt i64 %indvars.iv.i, 1
  br i1 %36, label %select.unfold.i, label %Extra_TruthCopy.exit.loopexit, !llvm.loop !27

Extra_TruthCopy.exit.loopexit:                    ; preds = %select.unfold.i
  %.pre = load i32, ptr %2, align 8
  br label %Extra_TruthCopy.exit

Extra_TruthCopy.exit:                             ; preds = %.preheader, %Extra_TruthCopy.exit.loopexit, %._crit_edge
  %37 = phi i32 [ %.pre, %Extra_TruthCopy.exit.loopexit ], [ %23, %._crit_edge ], [ %13, %.preheader ]
  %38 = add i32 %37, 15
  %39 = and i32 %38, 15
  %40 = and i32 %37, -16
  %41 = or disjoint i32 %39, %40
  store i32 %41, ptr %2, align 8
  br label %42

42:                                               ; preds = %9, %Extra_TruthCopy.exit
  %43 = icmp sgt i32 %.03345.in, 1
  %indvars.iv.next = add nsw i64 %indvars.iv, -1
  br i1 %43, label %9, label %._crit_edge48, !llvm.loop !28

._crit_edge48:                                    ; preds = %42, %1
  ret void
}